target datalayout = "e-m:e-p270:32:32-p271:32:32-p272:64:64-i64:64-i128:128-f80:128-n8:16:32:64-S128"
target triple = "x86_64-pc-linux-gnu"

%"class.std::__cxx11::basic_string" = type { %"struct.std::__cxx11::basic_string<char>::_Alloc_hider", i64, %union.anon }
%"struct.std::__cxx11::basic_string<char>::_Alloc_hider" = type { ptr }
%union.anon = type { i64, [8 x i8] }
%"class.open_spiel::battleship::ShipPlacement" = type { %"class.open_spiel::battleship::CellAndDirection", %"struct.open_spiel::battleship::Ship" }
%"class.open_spiel::battleship::CellAndDirection" = type { i32, %"struct.open_spiel::battleship::Cell" }
%"struct.open_spiel::battleship::Cell" = type { i32, i32 }
%"struct.open_spiel::battleship::Ship" = type { i32, i32, double }

@.str = private unnamed_addr constant [146 x i8] c"generated/home/dtcxzyw/WorkSpace/Projects/compilers/llvm-opt-benchmark/bench/openspiel/open_spiel/open_spiel/games/battleship/battleship_types.cc\00", align 1
@.str.1 = private unnamed_addr constant [2 x i8] c":\00", align 1
@.str.2 = private unnamed_addr constant [2 x i8] c" \00", align 1
@.str.5 = private unnamed_addr constant [4 x i8] c" = \00", align 1
@.str.18 = private unnamed_addr constant [33 x i8] c"direction == Direction::Vertical\00", align 1
@.str.19 = private unnamed_addr constant [11 x i8] c"\0Adirection\00", align 1
@.str.20 = private unnamed_addr constant [25 x i8] c", Direction::Vertical = \00", align 1

; Function Attrs: mustprogress uwtable
define i64 @_ZNK10open_spiel10battleship13ShipPlacement17BottomRightCornerEv(ptr noundef nonnull align 8 dereferenceable(32) %0) #4 align 2 personality ptr @__gxx_personality_v0 {
  %2 = alloca %"struct.open_spiel::battleship::Cell", align 4
  %3 = alloca ptr, align 8
  %4 = alloca i32, align 4
  %5 = alloca i32, align 4
  %6 = alloca %"class.std::__cxx11::basic_string", align 8
  %7 = alloca i32, align 4
  %8 = alloca ptr, align 8
  %9 = alloca i32, align 4
  store ptr %0, ptr %3, align 8
  %10 = load ptr, ptr %3, align 8
  %11 = getelementptr inbounds nuw %"class.open_spiel::battleship::CellAndDirection", ptr %10, i32 0, i32 0
  %12 = load i32, ptr %11, align 8
  %13 = icmp eq i32 %12, 0
  br i1 %13, label %14, label %28

14:                                               ; preds = %1
  %15 = getelementptr inbounds nuw %"struct.open_spiel::battleship::Cell", ptr %2, i32 0, i32 0
  %16 = getelementptr inbounds nuw %"class.open_spiel::battleship::CellAndDirection", ptr %10, i32 0, i32 1
  %17 = getelementptr inbounds nuw %"struct.open_spiel::battleship::Cell", ptr %16, i32 0, i32 0
  %18 = load i32, ptr %17, align 4
  store i32 %18, ptr %15, align 4
  %19 = getelementptr inbounds nuw %"struct.open_spiel::battleship::Cell", ptr %2, i32 0, i32 1
  %20 = getelementptr inbounds nuw %"class.open_spiel::battleship::CellAndDirection", ptr %10, i32 0, i32 1
  %21 = getelementptr inbounds nuw %"struct.open_spiel::battleship::Cell", ptr %20, i32 0, i32 1
  %22 = load i32, ptr %21, align 4
  %23 = getelementptr inbounds nuw %"class.open_spiel::battleship::ShipPlacement", ptr %10, i32 0, i32 1
  %24 = getelementptr inbounds nuw %"struct.open_spiel::battleship::Ship", ptr %23, i32 0, i32 1
  %25 = load i32, ptr %24, align 4
  %26 = add nsw i32 %22, %25
  %27 = sub nsw i32 %26, 1
  store i32 %27, ptr %19, align 4
  br label %56

28:                                               ; preds = %1
  br label %29

29:                                               ; preds = %28
  %30 = getelementptr inbounds nuw %"class.open_spiel::battleship::CellAndDirection", ptr %10, i32 0, i32 0
  %31 = load i32, ptr %30, align 8
  store i32 %31, ptr %4, align 4
  store i32 1, ptr %5, align 4
  %32 = load i32, ptr %4, align 4
  %33 = load i32, ptr %5, align 4
  %34 = icmp eq i32 %32, %33
  br i1 %34, label %41, label %35

35:                                               ; preds = %29
  store i32 136, ptr %7, align 4
  call void @_ZN10open_spiel8internal11SpielStrCatIJRA146_KcRA2_S2_iS6_RA33_S2_RA11_S2_RA4_S2_RNS_10battleship16CellAndDirection9DirectionERA25_S2_SG_EEENSt7__cxx1112basic_stringIcSt11char_traitsIcESaIcEEEDpOT_(ptr dead_on_unwind writable sret(%"class.std::__cxx11::basic_string") align 8 %6, ptr noundef nonnull align 1 dereferenceable(146) @.str, ptr noundef nonnull align 1 dereferenceable(2) @.str.1, ptr noundef nonnull align 4 dereferenceable(4) %7, ptr noundef nonnull align 1 dereferenceable(2) @.str.2, ptr noundef nonnull align 1 dereferenceable(33) @.str.18, ptr noundef nonnull align 1 dereferenceable(11) @.str.19, ptr noundef nonnull align 1 dereferenceable(4) @.str.5, ptr noundef nonnull align 4 dereferenceable(4) %4, ptr noundef nonnull align 1 dereferenceable(25) @.str.20, ptr noundef nonnull align 4 dereferenceable(4) %5)
  invoke void @_ZN10open_spiel15SpielFatalErrorERKNSt7__cxx1112basic_stringIcSt11char_traitsIcESaIcEEE(ptr noundef nonnull align 8 dereferenceable(32) %6) #12
          to label %36 unwind label %37

36:                                               ; preds = %35
  unreachable

37:                                               ; preds = %35
  %38 = landingpad { ptr, i32 }
          cleanup
  %39 = extractvalue { ptr, i32 } %38, 0
  store ptr %39, ptr %8, align 8
  %40 = extractvalue { ptr, i32 } %38, 1
  store i32 %40, ptr %9, align 4
  call void @_ZNSt7__cxx1112basic_stringIcSt11char_traitsIcESaIcEED1Ev(ptr noundef nonnull align 8 dereferenceable(32) %6) #3
  br label %58

41:                                               ; preds = %29
  br label %42

42:                                               ; preds = %41
  %43 = getelementptr inbounds nuw %"struct.open_spiel::battleship::Cell", ptr %2, i32 0, i32 0
  %44 = getelementptr inbounds nuw %"class.open_spiel::battleship::CellAndDirection", ptr %10, i32 0, i32 1
  %45 = getelementptr inbounds nuw %"struct.open_spiel::battleship::Cell", ptr %44, i32 0, i32 0
  %46 = load i32, ptr %45, align 4
  %47 = getelementptr inbounds nuw %"class.open_spiel::battleship::ShipPlacement", ptr %10, i32 0, i32 1
  %48 = getelementptr inbounds nuw %"struct.open_spiel::battleship::Ship", ptr %47, i32 0, i32 1
  %49 = load i32, ptr %48, align 4
  %50 = add nsw i32 %46, %49
  %51 = sub nsw i32 %50, 1
  store i32 %51, ptr %43, align 4
  %52 = getelementptr inbounds nuw %"struct.open_spiel::battleship::Cell", ptr %2, i32 0, i32 1
  %53 = getelementptr inbounds nuw %"class.open_spiel::battleship::CellAndDirection", ptr %10, i32 0, i32 1
  %54 = getelementptr inbounds nuw %"struct.open_spiel::battleship::Cell", ptr %53, i32 0, i32 1
  %55 = load i32, ptr %54, align 4
  store i32 %55, ptr %52, align 4
  br label %56

56:                                               ; preds = %42, %14
  %57 = load i64, ptr %2, align 4
  ret i64 %57

58:                                               ; preds = %37
  %59 = load ptr, ptr %8, align 8
  %60 = load i32, ptr %9, align 4
  %61 = insertvalue { ptr, i32 } poison, ptr %59, 0
  %62 = insertvalue { ptr, i32 } %61, i32 %60, 1
  resume { ptr, i32 } %62
}