; Function Attrs: mustprogress uwtable
define i64 @_ZNK10open_spiel10battleship13ShipPlacement17BottomRightCornerEv(ptr nocapture noundef nonnull readonly align 8 dereferenceable(32) %0) local_unnamed_addr #3 align 2 personality ptr @__gxx_personality_v0 {
  %2 = alloca i32, align 4
  %3 = alloca i32, align 4
  %4 = alloca %"class.std::__cxx11::basic_string", align 8
  %5 = alloca i32, align 4
  %6 = load i32, ptr %0, align 8
  %7 = icmp eq i32 %6, 0
  br i1 %7, label %8, label %17

8:                                                ; preds = %1
  %9 = getelementptr inbounds nuw i8, ptr %0, i64 4
  %10 = load i32, ptr %9, align 4
  %11 = getelementptr inbounds i8, ptr %0, i64 8
  %12 = load i32, ptr %11, align 8
  %13 = getelementptr inbounds i8, ptr %0, i64 20
  %14 = load i32, ptr %13, align 4
  %15 = add i32 %12, -1
  %16 = add i32 %15, %14
  br label %32

17:                                               ; preds = %1
  store i32 %6, ptr %2, align 4
  store i32 1, ptr %3, align 4
  %18 = icmp eq i32 %6, 1
  br i1 %18, label %23, label %19

19:                                               ; preds = %17
  store i32 136, ptr %5, align 4
  call void @_ZN10open_spiel8internal11SpielStrCatIJRA146_KcRA2_S2_iS6_RA33_S2_RA11_S2_RA4_S2_RNS_10battleship16CellAndDirection9DirectionERA25_S2_SG_EEENSt7__cxx1112basic_stringIcSt11char_traitsIcESaIcEEEDpOT_(ptr dead_on_unwind nonnull writable sret(%"class.std::__cxx11::basic_string") align 8 %4, ptr noundef nonnull align 1 dereferenceable(146) @.str, ptr noundef nonnull align 1 dereferenceable(2) @.str.1, ptr noundef nonnull align 4 dereferenceable(4) %5, ptr noundef nonnull align 1 dereferenceable(2) @.str.2, ptr noundef nonnull align 1 dereferenceable(33) @.str.18, ptr noundef nonnull align 1 dereferenceable(11) @.str.19, ptr noundef nonnull align 1 dereferenceable(4) @.str.5, ptr noundef nonnull align 4 dereferenceable(4) %2, ptr noundef nonnull align 1 dereferenceable(25) @.str.20, ptr noundef nonnull align 4 dereferenceable(4) %3)
  invoke void @_ZN10open_spiel15SpielFatalErrorERKNSt7__cxx1112basic_stringIcSt11char_traitsIcESaIcEEE(ptr noundef nonnull align 8 dereferenceable(32) %4) #11
          to label %20 unwind label %21

20:                                               ; preds = %19
  unreachable

21:                                               ; preds = %19
  %22 = landingpad { ptr, i32 }
          cleanup
  call void @_ZNSt7__cxx1112basic_stringIcSt11char_traitsIcESaIcEED1Ev(ptr noundef nonnull align 8 dereferenceable(32) %4) #14
  resume { ptr, i32 } %22

23:                                               ; preds = %17
  %24 = getelementptr inbounds nuw i8, ptr %0, i64 4
  %25 = load i32, ptr %24, align 4
  %26 = getelementptr inbounds i8, ptr %0, i64 20
  %27 = load i32, ptr %26, align 4
  %28 = add i32 %25, -1
  %29 = add i32 %28, %27
  %30 = getelementptr inbounds i8, ptr %0, i64 8
  %31 = load i32, ptr %30, align 8
  br label %32

32:                                               ; preds = %23, %8
  %.sroa.0.0 = phi i32 [ %10, %8 ], [ %29, %23 ]
  %.sroa.3.0 = phi i32 [ %16, %8 ], [ %31, %23 ]
  %.sroa.3.0.insert.ext = zext i32 %.sroa.3.0 to i64
  %.sroa.3.0.insert.shift = shl nuw i64 %.sroa.3.0.insert.ext, 32
  %.sroa.0.0.insert.ext = zext i32 %.sroa.0.0 to i64
  %.sroa.0.0.insert.insert = or disjoint i64 %.sroa.3.0.insert.shift, %.sroa.0.0.insert.ext
  ret i64 %.sroa.0.0.insert.insert
}